target datalayout = "e-m:e-p270:32:32-p271:32:32-p272:64:64-i64:64-i128:128-f80:128-n8:16:32:64-S128"
target triple = "x86_64-pc-linux-gnu"

; Function Attrs: noinline nounwind uwtable
define i32 @ma_itoa_s(i32 noundef %0, ptr noundef %1, i64 noundef %2, i32 noundef %3) #1 {
  %5 = alloca i32, align 4
  %6 = alloca i32, align 4
  %7 = alloca ptr, align 8
  %8 = alloca i64, align 8
  %9 = alloca i32, align 4
  %10 = alloca i32, align 4
  %11 = alloca i32, align 4
  %12 = alloca ptr, align 8
  %13 = alloca i32, align 4
  %14 = alloca i32, align 4
  %15 = alloca i8, align 1
  store i32 %0, ptr %6, align 4, !tbaa !8
  store ptr %1, ptr %7, align 8, !tbaa !10
  store i64 %2, ptr %8, align 8, !tbaa !12
  store i32 %3, ptr %9, align 4, !tbaa !8
  call void @llvm.lifetime.start.p0(i64 4, ptr %10) #16
  call void @llvm.lifetime.start.p0(i64 4, ptr %11) #16
  call void @llvm.lifetime.start.p0(i64 8, ptr %12) #16
  %16 = load ptr, ptr %7, align 8, !tbaa !10
  %17 = icmp eq ptr %16, null
  br i1 %17, label %21, label %18

18:                                               ; preds = %4
  %19 = load i64, ptr %8, align 8, !tbaa !12
  %20 = icmp eq i64 %19, 0
  br i1 %20, label %21, label %22

21:                                               ; preds = %18, %4
  store i32 22, ptr %5, align 4
  store i32 1, ptr %13, align 4
  br label %123

22:                                               ; preds = %18
  %23 = load i32, ptr %9, align 4, !tbaa !8
  %24 = icmp slt i32 %23, 2
  br i1 %24, label %28, label %25

25:                                               ; preds = %22
  %26 = load i32, ptr %9, align 4, !tbaa !8
  %27 = icmp sgt i32 %26, 36
  br i1 %27, label %28, label %31

28:                                               ; preds = %25, %22
  %29 = load ptr, ptr %7, align 8, !tbaa !10
  %30 = getelementptr inbounds i8, ptr %29, i64 0
  store i8 0, ptr %30, align 1, !tbaa !14
  store i32 22, ptr %5, align 4
  store i32 1, ptr %13, align 4
  br label %123

31:                                               ; preds = %25
  %32 = load i32, ptr %6, align 4, !tbaa !8
  %33 = icmp slt i32 %32, 0
  br i1 %33, label %34, label %37

34:                                               ; preds = %31
  %35 = load i32, ptr %9, align 4, !tbaa !8
  %36 = icmp eq i32 %35, 10
  br label %37

37:                                               ; preds = %34, %31
  %38 = phi i1 [ false, %31 ], [ %36, %34 ]
  %39 = select i1 %38, i32 -1, i32 1
  store i32 %39, ptr %10, align 4, !tbaa !8
  %40 = load i32, ptr %6, align 4, !tbaa !8
  %41 = icmp slt i32 %40, 0
  br i1 %41, label %42, label %45

42:                                               ; preds = %37
  %43 = load i32, ptr %6, align 4, !tbaa !8
  %44 = sub nsw i32 0, %43
  store i32 %44, ptr %11, align 4, !tbaa !8
  br label %47

45:                                               ; preds = %37
  %46 = load i32, ptr %6, align 4, !tbaa !8
  store i32 %46, ptr %11, align 4, !tbaa !8
  br label %47

47:                                               ; preds = %45, %42
  %48 = load ptr, ptr %7, align 8, !tbaa !10
  store ptr %48, ptr %12, align 8, !tbaa !10
  br label %49

49:                                               ; preds = %80, %47
  call void @llvm.lifetime.start.p0(i64 4, ptr %14) #16
  %50 = load i32, ptr %11, align 4, !tbaa !8
  %51 = load i32, ptr %9, align 4, !tbaa !8
  %52 = urem i32 %50, %51
  store i32 %52, ptr %14, align 4, !tbaa !8
  %53 = load i32, ptr %14, align 4, !tbaa !8
  %54 = icmp sgt i32 %53, 9
  br i1 %54, label %55, label %61

55:                                               ; preds = %49
  %56 = load i32, ptr %14, align 4, !tbaa !8
  %57 = sub nsw i32 %56, 10
  %58 = add nsw i32 %57, 97
  %59 = trunc i32 %58 to i8
  %60 = load ptr, ptr %12, align 8, !tbaa !10
  store i8 %59, ptr %60, align 1, !tbaa !14
  br label %66

61:                                               ; preds = %49
  %62 = load i32, ptr %14, align 4, !tbaa !8
  %63 = add nsw i32 %62, 48
  %64 = trunc i32 %63 to i8
  %65 = load ptr, ptr %12, align 8, !tbaa !10
  store i8 %64, ptr %65, align 1, !tbaa !14
  br label %66

66:                                               ; preds = %61, %55
  %67 = load ptr, ptr %12, align 8, !tbaa !10
  %68 = getelementptr inbounds i8, ptr %67, i64 1
  store ptr %68, ptr %12, align 8, !tbaa !10
  %69 = load i64, ptr %8, align 8, !tbaa !12
  %70 = sub i64 %69, 1
  store i64 %70, ptr %8, align 8, !tbaa !12
  %71 = load i32, ptr %9, align 4, !tbaa !8
  %72 = load i32, ptr %11, align 4, !tbaa !8
  %73 = udiv i32 %72, %71
  store i32 %73, ptr %11, align 4, !tbaa !8
  call void @llvm.lifetime.end.p0(i64 4, ptr %14) #16
  br label %74

74:                                               ; preds = %66
  %75 = load i64, ptr %8, align 8, !tbaa !12
  %76 = icmp ugt i64 %75, 0
  br i1 %76, label %77, label %80

77:                                               ; preds = %74
  %78 = load i32, ptr %11, align 4, !tbaa !8
  %79 = icmp ugt i32 %78, 0
  br label %80

80:                                               ; preds = %77, %74
  %81 = phi i1 [ false, %74 ], [ %79, %77 ]
  br i1 %81, label %49, label %82, !llvm.loop !23

82:                                               ; preds = %80
  %83 = load i64, ptr %8, align 8, !tbaa !12
  %84 = icmp eq i64 %83, 0
  br i1 %84, label %85, label %88

85:                                               ; preds = %82
  %86 = load ptr, ptr %7, align 8, !tbaa !10
  %87 = getelementptr inbounds i8, ptr %86, i64 0
  store i8 0, ptr %87, align 1, !tbaa !14
  store i32 22, ptr %5, align 4
  store i32 1, ptr %13, align 4
  br label %123

88:                                               ; preds = %82
  %89 = load i32, ptr %10, align 4, !tbaa !8
  %90 = icmp slt i32 %89, 0
  br i1 %90, label %91, label %96

91:                                               ; preds = %88
  %92 = load ptr, ptr %12, align 8, !tbaa !10
  %93 = getelementptr inbounds nuw i8, ptr %92, i32 1
  store ptr %93, ptr %12, align 8, !tbaa !10
  store i8 45, ptr %92, align 1, !tbaa !14
  %94 = load i64, ptr %8, align 8, !tbaa !12
  %95 = sub i64 %94, 1
  store i64 %95, ptr %8, align 8, !tbaa !12
  br label %96

96:                                               ; preds = %91, %88
  %97 = load i64, ptr %8, align 8, !tbaa !12
  %98 = icmp eq i64 %97, 0
  br i1 %98, label %99, label %102

99:                                               ; preds = %96
  %100 = load ptr, ptr %7, align 8, !tbaa !10
  %101 = getelementptr inbounds i8, ptr %100, i64 0
  store i8 0, ptr %101, align 1, !tbaa !14
  store i32 22, ptr %5, align 4
  store i32 1, ptr %13, align 4
  br label %123

102:                                              ; preds = %96
  %103 = load ptr, ptr %12, align 8, !tbaa !10
  store i8 0, ptr %103, align 1, !tbaa !14
  %104 = load ptr, ptr %12, align 8, !tbaa !10
  %105 = getelementptr inbounds i8, ptr %104, i64 -1
  store ptr %105, ptr %12, align 8, !tbaa !10
  br label %106

106:                                              ; preds = %110, %102
  %107 = load ptr, ptr %7, align 8, !tbaa !10
  %108 = load ptr, ptr %12, align 8, !tbaa !10
  %109 = icmp ult ptr %107, %108
  br i1 %109, label %110, label %122

110:                                              ; preds = %106
  call void @llvm.lifetime.start.p0(i64 1, ptr %15) #16
  %111 = load ptr, ptr %7, align 8, !tbaa !10
  %112 = load i8, ptr %111, align 1, !tbaa !14
  store i8 %112, ptr %15, align 1, !tbaa !14
  %113 = load ptr, ptr %12, align 8, !tbaa !10
  %114 = load i8, ptr %113, align 1, !tbaa !14
  %115 = load ptr, ptr %7, align 8, !tbaa !10
  store i8 %114, ptr %115, align 1, !tbaa !14
  %116 = load i8, ptr %15, align 1, !tbaa !14
  %117 = load ptr, ptr %12, align 8, !tbaa !10
  store i8 %116, ptr %117, align 1, !tbaa !14
  %118 = load ptr, ptr %7, align 8, !tbaa !10
  %119 = getelementptr inbounds i8, ptr %118, i64 1
  store ptr %119, ptr %7, align 8, !tbaa !10
  %120 = load ptr, ptr %12, align 8, !tbaa !10
  %121 = getelementptr inbounds i8, ptr %120, i64 -1
  store ptr %121, ptr %12, align 8, !tbaa !10
  call void @llvm.lifetime.end.p0(i64 1, ptr %15) #16
  br label %106, !llvm.loop !24

122:                                              ; preds = %106
  store i32 0, ptr %5, align 4
  store i32 1, ptr %13, align 4
  br label %123

123:                                              ; preds = %122, %99, %85, %28, %21
  call void @llvm.lifetime.end.p0(i64 8, ptr %12) #16
  call void @llvm.lifetime.end.p0(i64 4, ptr %11) #16
  call void @llvm.lifetime.end.p0(i64 4, ptr %10) #16
  %124 = load i32, ptr %5, align 4
  ret i32 %124
}