; Function Attrs: nofree noinline norecurse nosync nounwind memory(argmem: readwrite) uwtable
define range(i32 0, 23) i32 @ma_itoa_s(i32 noundef %0, ptr noundef captures(address) %1, i64 noundef %2, i32 noundef %3) local_unnamed_addr #2 {
  %5 = icmp eq ptr %1, null
  %6 = icmp eq i64 %2, 0
  %or.cond = or i1 %5, %6
  br i1 %or.cond, label %.loopexit, label %7

7:                                                ; preds = %4
  %8 = add i32 %3, -37
  %or.cond3 = icmp ult i32 %8, -35
  br i1 %or.cond3, label %.loopexit.sink.split, label %9

9:                                                ; preds = %7
  %10 = icmp eq i32 %3, 10
  %.047 = tail call i32 @llvm.abs.i32(i32 %0, i1 true)
  br label %11

11:                                               ; preds = %11, %9
  %.049 = phi i64 [ %2, %9 ], [ %16, %11 ]
  %.148 = phi i32 [ %.047, %9 ], [ %17, %11 ]
  %.046 = phi ptr [ %1, %9 ], [ %15, %11 ]
  %12 = urem i32 %.148, %3
  %13 = icmp samesign ugt i32 %12, 9
  %14 = trunc nuw i32 %12 to i8
  %storemerge.v = select i1 %13, i8 87, i8 48
  %storemerge = add nuw i8 %storemerge.v, %14
  store i8 %storemerge, ptr %.046, align 1, !tbaa !7
  %15 = getelementptr inbounds nuw i8, ptr %.046, i64 1
  %16 = add i64 %.049, -1
  %17 = udiv i32 %.148, %3
  %18 = icmp ne i64 %16, 0
  %19 = icmp ule i32 %3, %.148
  %20 = and i1 %18, %19
  br i1 %20, label %11, label %21, !llvm.loop !16

21:                                               ; preds = %11
  %22 = icmp eq i64 %16, 0
  br i1 %22, label %.loopexit.sink.split, label %23

23:                                               ; preds = %21
  %24 = icmp slt i32 %0, 0
  %25 = and i1 %24, %10
  br i1 %25, label %26, label %.thread

26:                                               ; preds = %23
  %27 = getelementptr inbounds nuw i8, ptr %.046, i64 2
  store i8 45, ptr %15, align 1, !tbaa !7
  %28 = icmp eq i64 %.049, 2
  br i1 %28, label %.loopexit.sink.split, label %.thread

.thread:                                          ; preds = %23, %26
  %.163 = phi ptr [ %27, %26 ], [ %15, %23 ]
  store i8 0, ptr %.163, align 1, !tbaa !7
  %.265 = getelementptr inbounds i8, ptr %.163, i64 -1
  %29 = icmp ult ptr %1, %.265
  br i1 %29, label %.lr.ph, label %.loopexit

.lr.ph:                                           ; preds = %.thread, %.lr.ph
  %.267 = phi ptr [ %.2, %.lr.ph ], [ %.265, %.thread ]
  %.04566 = phi ptr [ %32, %.lr.ph ], [ %1, %.thread ]
  %30 = load i8, ptr %.04566, align 1, !tbaa !7
  %31 = load i8, ptr %.267, align 1, !tbaa !7
  store i8 %31, ptr %.04566, align 1, !tbaa !7
  store i8 %30, ptr %.267, align 1, !tbaa !7
  %32 = getelementptr inbounds nuw i8, ptr %.04566, i64 1
  %.2 = getelementptr inbounds i8, ptr %.267, i64 -1
  %33 = icmp ult ptr %32, %.2
  br i1 %33, label %.lr.ph, label %.loopexit, !llvm.loop !17

.loopexit.sink.split:                             ; preds = %26, %21, %7
  store i8 0, ptr %1, align 1, !tbaa !7
  br label %.loopexit

.loopexit:                                        ; preds = %.lr.ph, %.loopexit.sink.split, %.thread, %4
  %.0 = phi i32 [ 22, %4 ], [ 0, %.thread ], [ 22, %.loopexit.sink.split ], [ 0, %.lr.ph ]
  ret i32 %.0
}